target datalayout = "e-m:e-p270:32:32-p271:32:32-p272:64:64-i64:64-i128:128-f80:128-n8:16:32:64-S128"
target triple = "x86_64-pc-linux-gnu"

%"class.std::vector.211" = type { %"struct.std::_Vector_base.212" }
%"struct.std::_Vector_base.212" = type { %"struct.std::_Vector_base<std::__cxx11::basic_string<char>, std::allocator<std::__cxx11::basic_string<char>>>::_Vector_impl" }
%"struct.std::_Vector_base<std::__cxx11::basic_string<char>, std::allocator<std::__cxx11::basic_string<char>>>::_Vector_impl" = type { %"struct.std::_Vector_base<std::__cxx11::basic_string<char>, std::allocator<std::__cxx11::basic_string<char>>>::_Vector_impl_data" }
%"struct.std::_Vector_base<std::__cxx11::basic_string<char>, std::allocator<std::__cxx11::basic_string<char>>>::_Vector_impl_data" = type { ptr, ptr, ptr }
%class.cmCommonTargetGenerator = type { ptr, ptr, ptr, ptr, ptr, %"class.std::vector.211", i8, %"class.std::map.216" }
%"class.std::map.216" = type { %"class.std::_Rb_tree.217" }
%"class.std::_Rb_tree.217" = type { %"struct.std::_Rb_tree<std::__cxx11::basic_string<char>, std::pair<const std::__cxx11::basic_string<char>, cmCommonTargetGenerator::ByConfig>, std::_Select1st<std::pair<const std::__cxx11::basic_string<char>, cmCommonTargetGenerator::ByConfig>>, std::less<std::__cxx11::basic_string<char>>>::_Rb_tree_impl" }
%"struct.std::_Rb_tree<std::__cxx11::basic_string<char>, std::pair<const std::__cxx11::basic_string<char>, cmCommonTargetGenerator::ByConfig>, std::_Select1st<std::pair<const std::__cxx11::basic_string<char>, cmCommonTargetGenerator::ByConfig>>, std::less<std::__cxx11::basic_string<char>>>::_Rb_tree_impl" = type { %"struct.std::_Rb_tree_key_compare.10", %"struct.std::_Rb_tree_header" }
%"struct.std::_Rb_tree_key_compare.10" = type { %"struct.std::less.11" }
%"struct.std::less.11" = type { i8 }
%"struct.std::_Rb_tree_header" = type { %"struct.std::_Rb_tree_node_base", i64 }
%"struct.std::_Rb_tree_node_base" = type { i32, ptr, ptr, ptr }

; Function Attrs: mustprogress nounwind uwtable
define linkonce_odr dso_local noundef ptr @_ZNK22cmNinjaTargetGenerator18GetGeneratorTargetEv(ptr noundef nonnull align 8 dereferenceable(240) %0) #5 comdat align 2 {
  %2 = alloca ptr, align 8
  store ptr %0, ptr %2, align 8
  %3 = load ptr, ptr %2, align 8
  %4 = getelementptr inbounds %class.cmCommonTargetGenerator, ptr %3, i32 0, i32 1
  %5 = load ptr, ptr %4, align 8
  ret ptr %5
}

; Function Attrs: mustprogress uwtable
define dso_local void @_ZN22cmNinjaTargetGenerator16WriteCompileRuleERKNSt7__cxx1112basic_stringIcSt11char_traitsIcESaIcEEES7_(ptr noundef nonnull align 8 dereferenceable(240) %0, ptr noundef nonnull align 8 dereferenceable(32) %1, ptr noundef nonnull align 8 dereferenceable(32) %2) #4 align 2 {
  %4 = alloca ptr, align 8
  %5 = alloca ptr, align 8
  %6 = alloca ptr, align 8
  %7 = alloca i8, align 1
  store ptr %0, ptr %4, align 8
  store ptr %1, ptr %5, align 8
  store ptr %2, ptr %6, align 8
  %8 = load ptr, ptr %4, align 8
  %9 = call noundef ptr @_ZNK22cmNinjaTargetGenerator18GetGeneratorTargetEv(ptr noundef nonnull align 8 dereferenceable(240) %8)
  %10 = load ptr, ptr %5, align 8
  %11 = load ptr, ptr %6, align 8
  %12 = call noundef zeroext i1 @_ZNK17cmGeneratorTarget10NeedDyndepERKNSt7__cxx1112basic_stringIcSt11char_traitsIcESaIcEEES7_(ptr noundef nonnull align 8 dereferenceable(2728) %9, ptr noundef nonnull align 8 dereferenceable(32) %10, ptr noundef nonnull align 8 dereferenceable(32) %11)
  %13 = zext i1 %12 to i8
  store i8 %13, ptr %7, align 1
  %14 = load i8, ptr %7, align 1
  %15 = trunc i8 %14 to i1
  br i1 %15, label %16, label %19

16:                                               ; preds = %3
  %17 = load ptr, ptr %5, align 8
  %18 = load ptr, ptr %6, align 8
  call void @_ZN22cmNinjaTargetGenerator16WriteCompileRuleERKNSt7__cxx1112basic_stringIcSt11char_traitsIcESaIcEEES7_NS_12WithScanningE(ptr noundef nonnull align 8 dereferenceable(240) %8, ptr noundef nonnull align 8 dereferenceable(32) %17, ptr noundef nonnull align 8 dereferenceable(32) %18, i32 noundef 1)
  br label %19

19:                                               ; preds = %16, %3
  %20 = load ptr, ptr %5, align 8
  %21 = load ptr, ptr %6, align 8
  call void @_ZN22cmNinjaTargetGenerator16WriteCompileRuleERKNSt7__cxx1112basic_stringIcSt11char_traitsIcESaIcEEES7_NS_12WithScanningE(ptr noundef nonnull align 8 dereferenceable(240) %8, ptr noundef nonnull align 8 dereferenceable(32) %20, ptr noundef nonnull align 8 dereferenceable(32) %21, i32 noundef 0)
  ret void
}