; Function Attrs: mustprogress uwtable
define dso_local void @_ZN22cmNinjaTargetGenerator16WriteCompileRuleERKNSt7__cxx1112basic_stringIcSt11char_traitsIcESaIcEEES7_(ptr nocapture noundef nonnull readonly align 8 dereferenceable(240) %0, ptr noundef nonnull align 8 dereferenceable(32) %1, ptr noundef nonnull align 8 dereferenceable(32) %2) local_unnamed_addr #3 align 2 {
  %4 = getelementptr inbounds i8, ptr %0, i64 8
  %5 = load ptr, ptr %4, align 8
  %6 = tail call noundef zeroext i1 @_ZNK17cmGeneratorTarget10NeedDyndepERKNSt7__cxx1112basic_stringIcSt11char_traitsIcESaIcEEES7_(ptr noundef nonnull align 8 dereferenceable(2728) %5, ptr noundef nonnull align 8 dereferenceable(32) %1, ptr noundef nonnull align 8 dereferenceable(32) %2)
  br i1 %6, label %7, label %8

7:                                                ; preds = %3
  tail call void @_ZN22cmNinjaTargetGenerator16WriteCompileRuleERKNSt7__cxx1112basic_stringIcSt11char_traitsIcESaIcEEES7_NS_12WithScanningE(ptr noundef nonnull align 8 dereferenceable(240) %0, ptr noundef nonnull align 8 dereferenceable(32) %1, ptr noundef nonnull align 8 dereferenceable(32) %2, i32 noundef 1)
  br label %8

8:                                                ; preds = %7, %3
  tail call void @_ZN22cmNinjaTargetGenerator16WriteCompileRuleERKNSt7__cxx1112basic_stringIcSt11char_traitsIcESaIcEEES7_NS_12WithScanningE(ptr noundef nonnull align 8 dereferenceable(240) %0, ptr noundef nonnull align 8 dereferenceable(32) %1, ptr noundef nonnull align 8 dereferenceable(32) %2, i32 noundef 0)
  ret void
}